target datalayout = "e-m:e-p270:32:32-p271:32:32-p272:64:64-i64:64-i128:128-f80:128-n8:16:32:64-S128"
target triple = "x86_64-pc-linux-gnu"

%struct.HeapTupleData = type { i32, %struct.ItemPointerData, i32, ptr }
%struct.ItemPointerData = type { %struct.BlockIdData, i16 }
%struct.BlockIdData = type { i16, i16 }
%struct.HeapTupleHeaderData = type { %union.anon, %struct.ItemPointerData, i16, i16, i8, [0 x i8] }
%union.anon = type { %struct.HeapTupleFields }
%struct.HeapTupleFields = type { i32, i32, %union.anon.0 }
%union.anon.0 = type { i32 }
%struct.nameData = type { [64 x i8] }
%struct.FormData_pg_proc = type { i32, %struct.nameData, i32, i32, i32, float, float, i32, i32, i8, i8, i8, i8, i8, i8, i8, i16, i16, i32, %struct.oidvector }
%struct.oidvector = type { i32, i32, i32, i32, i32, i32, [0 x i32] }

; Function Attrs: inlinehint nounwind uwtable
define internal ptr @GETSTRUCT(ptr noundef %0) #2 {
  %2 = alloca ptr, align 8
  store ptr %0, ptr %2, align 8
  %3 = load ptr, ptr %2, align 8
  %4 = getelementptr inbounds nuw %struct.HeapTupleData, ptr %3, i32 0, i32 3
  %5 = load ptr, ptr %4, align 8
  %6 = load ptr, ptr %2, align 8
  %7 = getelementptr inbounds nuw %struct.HeapTupleData, ptr %6, i32 0, i32 3
  %8 = load ptr, ptr %7, align 8
  %9 = getelementptr inbounds nuw %struct.HeapTupleHeaderData, ptr %8, i32 0, i32 4
  %10 = load i8, ptr %9, align 2
  %11 = zext i8 %10 to i32
  %12 = sext i32 %11 to i64
  %13 = getelementptr inbounds i8, ptr %5, i64 %12
  ret ptr %13
}

; Function Attrs: inlinehint nounwind uwtable
define internal i64 @ObjectIdGetDatum(i32 noundef %0) #2 {
  %2 = alloca i32, align 4
  store i32 %0, ptr %2, align 4
  %3 = load i32, ptr %2, align 4
  %4 = zext i32 %3 to i64
  ret i64 %4
}

; Function Attrs: nounwind uwtable
define dso_local ptr @get_func_name(i32 noundef %0) #0 {
  %2 = alloca ptr, align 8
  %3 = alloca i32, align 4
  %4 = alloca ptr, align 8
  %5 = alloca ptr, align 8
  %6 = alloca ptr, align 8
  %7 = alloca i32, align 4
  store i32 %0, ptr %3, align 4
  call void @llvm.lifetime.start.p0(i64 8, ptr %4) #7
  %8 = load i32, ptr %3, align 4
  %9 = call i64 @ObjectIdGetDatum(i32 noundef %8)
  %10 = call ptr @SearchSysCache1(i32 noundef 47, i64 noundef %9)
  store ptr %10, ptr %4, align 8
  %11 = load ptr, ptr %4, align 8
  %12 = icmp ne ptr %11, null
  br i1 %12, label %13, label %23

13:                                               ; preds = %1
  call void @llvm.lifetime.start.p0(i64 8, ptr %5) #7
  %14 = load ptr, ptr %4, align 8
  %15 = call ptr @GETSTRUCT(ptr noundef %14)
  store ptr %15, ptr %5, align 8
  call void @llvm.lifetime.start.p0(i64 8, ptr %6) #7
  %16 = load ptr, ptr %5, align 8
  %17 = getelementptr inbounds nuw %struct.FormData_pg_proc, ptr %16, i32 0, i32 1
  %18 = getelementptr inbounds nuw %struct.nameData, ptr %17, i32 0, i32 0
  %19 = getelementptr inbounds [64 x i8], ptr %18, i64 0, i64 0
  %20 = call ptr @pstrdup(ptr noundef %19)
  store ptr %20, ptr %6, align 8
  %21 = load ptr, ptr %4, align 8
  call void @ReleaseSysCache(ptr noundef %21)
  %22 = load ptr, ptr %6, align 8
  store ptr %22, ptr %2, align 8
  store i32 1, ptr %7, align 4
  call void @llvm.lifetime.end.p0(i64 8, ptr %6) #7
  call void @llvm.lifetime.end.p0(i64 8, ptr %5) #7
  br label %24

23:                                               ; preds = %1
  store ptr null, ptr %2, align 8
  store i32 1, ptr %7, align 4
  br label %24

24:                                               ; preds = %23, %13
  call void @llvm.lifetime.end.p0(i64 8, ptr %4) #7
  %25 = load ptr, ptr %2, align 8
  ret ptr %25
}